; Function Attrs: nounwind uwtable
define ptr @Abc_ConvertAigToAig(ptr noundef %0, ptr noundef readonly captures(none) %1) local_unnamed_addr #2 {
  %3 = load ptr, ptr %1, align 8, !tbaa !43
  %4 = getelementptr inbounds nuw i8, ptr %3, i64 256
  %5 = load ptr, ptr %4, align 8, !tbaa !65
  %6 = getelementptr inbounds nuw i8, ptr %1, i64 56
  %7 = load ptr, ptr %6, align 8, !tbaa !3
  %8 = ptrtoint ptr %7 to i64
  %9 = and i64 %8, -2
  %10 = inttoptr i64 %9 to ptr
  %11 = getelementptr i8, ptr %10, i64 32
  %.val20 = load i32, ptr %11, align 8
  %12 = and i32 %.val20, 7
  %.not = icmp eq i32 %12, 1
  br i1 %.not, label %16, label %.preheader

.preheader:                                       ; preds = %2
  %13 = getelementptr i8, ptr %1, i64 28
  %.val23 = load i32, ptr %13, align 4, !tbaa !47
  %14 = icmp sgt i32 %.val23, 0
  br i1 %14, label %.lr.ph, label %.critedge

.lr.ph:                                           ; preds = %.preheader
  %15 = getelementptr i8, ptr %1, i64 32
  br label %18

16:                                               ; preds = %2
  %17 = tail call ptr @Abc_AigConst1(ptr noundef %0) #17
  br label %34

18:                                               ; preds = %.lr.ph, %18
  %indvars.iv = phi i64 [ 0, %.lr.ph ], [ %indvars.iv.next, %18 ]
  %.val21 = load ptr, ptr %1, align 8, !tbaa !43
  %.val22 = load ptr, ptr %15, align 8, !tbaa !129
  %19 = getelementptr i8, ptr %.val21, i64 32
  %.val21.val = load ptr, ptr %19, align 8, !tbaa !18
  %20 = getelementptr i8, ptr %.val21.val, i64 8
  %.val21.val.val = load ptr, ptr %20, align 8, !tbaa !37
  %21 = getelementptr inbounds nuw i32, ptr %.val22, i64 %indvars.iv
  %22 = load i32, ptr %21, align 4, !tbaa !6
  %23 = sext i32 %22 to i64
  %24 = getelementptr inbounds ptr, ptr %.val21.val.val, i64 %23
  %25 = load ptr, ptr %24, align 8, !tbaa !38
  %26 = getelementptr inbounds nuw i8, ptr %25, i64 64
  %27 = load ptr, ptr %26, align 8, !tbaa !3
  %.val19 = load ptr, ptr %5, align 8, !tbaa !85
  %28 = getelementptr i8, ptr %.val19, i64 8
  %.val19.val = load ptr, ptr %28, align 8, !tbaa !37
  %29 = getelementptr inbounds nuw ptr, ptr %.val19.val, i64 %indvars.iv
  %30 = load ptr, ptr %29, align 8, !tbaa !38
  store ptr %27, ptr %30, align 8, !tbaa !3
  %indvars.iv.next = add nuw nsw i64 %indvars.iv, 1
  %.val = load i32, ptr %13, align 4, !tbaa !47
  %31 = sext i32 %.val to i64
  %32 = icmp slt i64 %indvars.iv.next, %31
  br i1 %32, label %18, label %.critedge, !llvm.loop !140

.critedge:                                        ; preds = %18, %.preheader
  tail call void @Abc_ConvertAigToAig_rec(ptr noundef %0, ptr noundef %10)
  tail call void @Hop_ConeUnmark_rec(ptr noundef %10) #17
  %33 = load ptr, ptr %10, align 8, !tbaa !3
  br label %34

34:                                               ; preds = %.critedge, %16
  %.sink27 = phi ptr [ %33, %.critedge ], [ %17, %16 ]
  %35 = and i64 %8, 1
  %36 = ptrtoint ptr %.sink27 to i64
  %37 = xor i64 %35, %36
  %.018 = inttoptr i64 %37 to ptr
  ret ptr %.018
}